target datalayout = "e-m:e-p270:32:32-p271:32:32-p272:64:64-i64:64-i128:128-f80:128-n8:16:32:64-S128"
target triple = "x86_64-pc-linux-gnu"

%struct.geod_polygon = type { double, double, double, double, [2 x double], [2 x double], i32, i32, i32 }

@NaN = internal global double 0.000000e+00, align 8

; Function Attrs: nounwind uwtable
define internal void @accini(ptr noundef %0) #0 {
  %2 = alloca ptr, align 8
  store ptr %0, ptr %2, align 8, !tbaa !25
  %3 = load ptr, ptr %2, align 8, !tbaa !25
  %4 = getelementptr inbounds double, ptr %3, i64 1
  store double 0.000000e+00, ptr %4, align 8, !tbaa !9
  %5 = load ptr, ptr %2, align 8, !tbaa !25
  %6 = getelementptr inbounds double, ptr %5, i64 0
  store double 0.000000e+00, ptr %6, align 8, !tbaa !9
  ret void
}

; Function Attrs: nounwind uwtable
define dso_local void @geod_polygon_clear(ptr noundef %0) #0 {
  %2 = alloca ptr, align 8
  store ptr %0, ptr %2, align 8, !tbaa !59
  %3 = load double, ptr @NaN, align 8, !tbaa !9
  %4 = load ptr, ptr %2, align 8, !tbaa !59
  %5 = getelementptr inbounds nuw %struct.geod_polygon, ptr %4, i32 0, i32 1
  store double %3, ptr %5, align 8, !tbaa !63
  %6 = load ptr, ptr %2, align 8, !tbaa !59
  %7 = getelementptr inbounds nuw %struct.geod_polygon, ptr %6, i32 0, i32 0
  store double %3, ptr %7, align 8, !tbaa !64
  %8 = load ptr, ptr %2, align 8, !tbaa !59
  %9 = getelementptr inbounds nuw %struct.geod_polygon, ptr %8, i32 0, i32 3
  store double %3, ptr %9, align 8, !tbaa !65
  %10 = load ptr, ptr %2, align 8, !tbaa !59
  %11 = getelementptr inbounds nuw %struct.geod_polygon, ptr %10, i32 0, i32 2
  store double %3, ptr %11, align 8, !tbaa !66
  %12 = load ptr, ptr %2, align 8, !tbaa !59
  %13 = getelementptr inbounds nuw %struct.geod_polygon, ptr %12, i32 0, i32 5
  %14 = getelementptr inbounds [2 x double], ptr %13, i64 0, i64 0
  call void @accini(ptr noundef %14)
  %15 = load ptr, ptr %2, align 8, !tbaa !59
  %16 = getelementptr inbounds nuw %struct.geod_polygon, ptr %15, i32 0, i32 4
  %17 = getelementptr inbounds [2 x double], ptr %16, i64 0, i64 0
  call void @accini(ptr noundef %17)
  %18 = load ptr, ptr %2, align 8, !tbaa !59
  %19 = getelementptr inbounds nuw %struct.geod_polygon, ptr %18, i32 0, i32 7
  store i32 0, ptr %19, align 4, !tbaa !67
  %20 = load ptr, ptr %2, align 8, !tbaa !59
  %21 = getelementptr inbounds nuw %struct.geod_polygon, ptr %20, i32 0, i32 8
  store i32 0, ptr %21, align 8, !tbaa !68
  ret void
}

; Function Attrs: nounwind uwtable
define dso_local void @geod_polygon_init(ptr noundef %0, i32 noundef %1) #0 {
  %3 = alloca ptr, align 8
  %4 = alloca i32, align 4
  store ptr %0, ptr %3, align 8, !tbaa !59
  store i32 %1, ptr %4, align 4, !tbaa !11
  %5 = load i32, ptr %4, align 4, !tbaa !11
  %6 = icmp ne i32 %5, 0
  %7 = zext i1 %6 to i32
  %8 = load ptr, ptr %3, align 8, !tbaa !59
  %9 = getelementptr inbounds nuw %struct.geod_polygon, ptr %8, i32 0, i32 6
  store i32 %7, ptr %9, align 8, !tbaa !61
  %10 = load ptr, ptr %3, align 8, !tbaa !59
  call void @geod_polygon_clear(ptr noundef %10)
  ret void
}

; Function Attrs: nounwind uwtable
define dso_local void @geod_polygonarea(ptr noundef %0, ptr noundef %1, ptr noundef %2, i32 noundef %3, ptr noundef %4, ptr noundef %5) #0 {
  %7 = alloca ptr, align 8
  %8 = alloca ptr, align 8
  %9 = alloca ptr, align 8
  %10 = alloca i32, align 4
  %11 = alloca ptr, align 8
  %12 = alloca ptr, align 8
  %13 = alloca i32, align 4
  %14 = alloca %struct.geod_polygon, align 8
  store ptr %0, ptr %7, align 8, !tbaa !4
  store ptr %1, ptr %8, align 8, !tbaa !25
  store ptr %2, ptr %9, align 8, !tbaa !25
  store i32 %3, ptr %10, align 4, !tbaa !11
  store ptr %4, ptr %11, align 8, !tbaa !25
  store ptr %5, ptr %12, align 8, !tbaa !25
  call void @llvm.lifetime.start.p0(i64 4, ptr %13) #9
  call void @llvm.lifetime.start.p0(i64 80, ptr %14) #9
  call void @geod_polygon_init(ptr noundef %14, i32 noundef 0)
  store i32 0, ptr %13, align 4, !tbaa !11
  br label %15

15:                                               ; preds = %31, %6
  %16 = load i32, ptr %13, align 4, !tbaa !11
  %17 = load i32, ptr %10, align 4, !tbaa !11
  %18 = icmp slt i32 %16, %17
  br i1 %18, label %19, label %34

19:                                               ; preds = %15
  %20 = load ptr, ptr %7, align 8, !tbaa !4
  %21 = load ptr, ptr %8, align 8, !tbaa !25
  %22 = load i32, ptr %13, align 4, !tbaa !11
  %23 = sext i32 %22 to i64
  %24 = getelementptr inbounds double, ptr %21, i64 %23
  %25 = load double, ptr %24, align 8, !tbaa !9
  %26 = load ptr, ptr %9, align 8, !tbaa !25
  %27 = load i32, ptr %13, align 4, !tbaa !11
  %28 = sext i32 %27 to i64
  %29 = getelementptr inbounds double, ptr %26, i64 %28
  %30 = load double, ptr %29, align 8, !tbaa !9
  call void @geod_polygon_addpoint(ptr noundef %20, ptr noundef %14, double noundef %25, double noundef %30)
  br label %31

31:                                               ; preds = %19
  %32 = load i32, ptr %13, align 4, !tbaa !11
  %33 = add nsw i32 %32, 1
  store i32 %33, ptr %13, align 4, !tbaa !11
  br label %15

34:                                               ; preds = %15
  %35 = load ptr, ptr %7, align 8, !tbaa !4
  %36 = load ptr, ptr %11, align 8, !tbaa !25
  %37 = load ptr, ptr %12, align 8, !tbaa !25
  %38 = call i32 @geod_polygon_compute(ptr noundef %35, ptr noundef %14, i32 noundef 0, i32 noundef 1, ptr noundef %36, ptr noundef %37)
  call void @llvm.lifetime.end.p0(i64 80, ptr %14) #9
  call void @llvm.lifetime.end.p0(i64 4, ptr %13) #9
  ret void
}