; Function Attrs: nofree nounwind uwtable
define dso_local void @geod_polygonarea(ptr noundef readonly captures(none) %0, ptr noundef readonly captures(none) %1, ptr noundef readonly captures(none) %2, i32 noundef %3, ptr noundef %4, ptr noundef %5) local_unnamed_addr #3 {
  %7 = alloca %struct.geod_polygon, align 8
  call void @llvm.lifetime.start.p0(i64 80, ptr nonnull %7) #13
  %8 = getelementptr inbounds nuw i8, ptr %7, i64 64
  store i32 0, ptr %8, align 8, !tbaa !52
  %9 = load double, ptr @NaN, align 8, !tbaa !4
  %10 = getelementptr inbounds nuw i8, ptr %7, i64 8
  store double %9, ptr %10, align 8, !tbaa !54
  store double %9, ptr %7, align 8, !tbaa !55
  %11 = getelementptr inbounds nuw i8, ptr %7, i64 24
  store double %9, ptr %11, align 8, !tbaa !56
  %12 = getelementptr inbounds nuw i8, ptr %7, i64 16
  store double %9, ptr %12, align 8, !tbaa !57
  %13 = getelementptr inbounds nuw i8, ptr %7, i64 32
  %14 = getelementptr inbounds nuw i8, ptr %7, i64 68
  store i32 0, ptr %14, align 4, !tbaa !58
  %15 = getelementptr inbounds nuw i8, ptr %7, i64 72
  store i32 0, ptr %15, align 8, !tbaa !59
  call void @llvm.memset.p0.i64(ptr noundef nonnull align 8 dereferenceable(32) %13, i8 0, i64 32, i1 false)
  %16 = icmp sgt i32 %3, 0
  br i1 %16, label %.lr.ph.preheader, label %._crit_edge

.lr.ph.preheader:                                 ; preds = %6
  %wide.trip.count = zext nneg i32 %3 to i64
  br label %.lr.ph

.lr.ph:                                           ; preds = %.lr.ph.preheader, %.lr.ph
  %indvars.iv = phi i64 [ 0, %.lr.ph.preheader ], [ %indvars.iv.next, %.lr.ph ]
  %17 = getelementptr inbounds nuw double, ptr %1, i64 %indvars.iv
  %18 = load double, ptr %17, align 8, !tbaa !4
  %19 = getelementptr inbounds nuw double, ptr %2, i64 %indvars.iv
  %20 = load double, ptr %19, align 8, !tbaa !4
  call void @geod_polygon_addpoint(ptr noundef %0, ptr noundef nonnull %7, double noundef %18, double noundef %20)
  %indvars.iv.next = add nuw nsw i64 %indvars.iv, 1
  %exitcond.not = icmp eq i64 %indvars.iv.next, %wide.trip.count
  br i1 %exitcond.not, label %._crit_edge, label %.lr.ph

._crit_edge:                                      ; preds = %.lr.ph, %6
  %21 = call i32 @geod_polygon_compute(ptr noundef %0, ptr noundef nonnull %7, i32 noundef 0, i32 noundef 1, ptr noundef %4, ptr noundef %5)
  call void @llvm.lifetime.end.p0(i64 80, ptr nonnull %7) #13
  ret void
}